; ModuleID = 'source-C-CXX/61/2210.cpp'
source_filename = "source-C-CXX/61/2210.cpp"
target datalayout = "e-m:e-p270:32:32-p271:32:32-p272:64:64-i64:64-f80:128-n8:16:32:64-S128"
target triple = "x86_64-pc-linux-gnu"

%"class.std::ios_base::Init" = type { i8 }
%"class.std::basic_istream" = type { i32 (...)**, i64, %"class.std::basic_ios" }
%"class.std::basic_ios" = type { %"class.std::ios_base", %"class.std::basic_ostream"*, i8, i8, %"class.std::basic_streambuf"*, %"class.std::ctype"*, %"class.std::num_put"*, %"class.std::num_get"* }
%"class.std::ios_base" = type { i32 (...)**, i64, i64, i32, i32, i32, %"struct.std::ios_base::_Callback_list"*, %"struct.std::ios_base::_Words", [8 x %"struct.std::ios_base::_Words"], i32, %"struct.std::ios_base::_Words"*, %"class.std::locale" }
%"struct.std::ios_base::_Callback_list" = type { %"struct.std::ios_base::_Callback_list"*, void (i32, %"class.std::ios_base"*, i32)*, i32, i32 }
%"struct.std::ios_base::_Words" = type { i8*, i64 }
%"class.std::locale" = type { %"class.std::locale::_Impl"* }
%"class.std::locale::_Impl" = type { i32, %"class.std::locale::facet"**, i64, %"class.std::locale::facet"**, i8** }
%"class.std::locale::facet" = type <{ i32 (...)**, i32, [4 x i8] }>
%"class.std::basic_ostream" = type { i32 (...)**, %"class.std::basic_ios" }
%"class.std::basic_streambuf" = type { i32 (...)**, i8*, i8*, i8*, i8*, i8*, i8*, %"class.std::locale" }
%"class.std::ctype" = type <{ %"class.std::locale::facet.base", [4 x i8], %struct.__locale_struct*, i8, [7 x i8], i32*, i32*, i16*, i8, [256 x i8], [256 x i8], i8, [6 x i8] }>
%"class.std::locale::facet.base" = type <{ i32 (...)**, i32 }>
%struct.__locale_struct = type { [13 x %struct.__locale_data*], i16*, i32*, i32*, [13 x i8*] }
%struct.__locale_data = type opaque
%"class.std::num_put" = type { %"class.std::locale::facet.base", [4 x i8] }
%"class.std::num_get" = type { %"class.std::locale::facet.base", [4 x i8] }

@_ZStL8__ioinit = internal global %"class.std::ios_base::Init" zeroinitializer, align 1
@__dso_handle = external hidden global i8
@_ZSt3cin = external global %"class.std::basic_istream", align 8
@_ZSt4cout = external global %"class.std::basic_ostream", align 8
@llvm.global_ctors = appending global [1 x { i32, void ()*, i8* }] [{ i32, void ()*, i8* } { i32 65535, void ()* @_GLOBAL__sub_I_2210.cpp, i8* null }]

declare void @_ZNSt8ios_base4InitC1Ev(%"class.std::ios_base::Init"* nonnull align 1 dereferenceable(1)) unnamed_addr #0

; Function Attrs: nounwind
declare void @_ZNSt8ios_base4InitD1Ev(%"class.std::ios_base::Init"* nonnull align 1 dereferenceable(1)) unnamed_addr #1

; Function Attrs: nofree nounwind
declare i32 @__cxa_atexit(void (i8*)*, i8*, i8*) local_unnamed_addr #2

; Function Attrs: mustprogress norecurse sspstrong uwtable
define dso_local i32 @main() local_unnamed_addr #3 {
  %1 = alloca i8, align 1
  %2 = alloca [1000 x i8], align 16
  %3 = getelementptr inbounds [1000 x i8], [1000 x i8]* %2, i64 0, i64 0
  call void @llvm.lifetime.start.p0i8(i64 1000, i8* nonnull %3) #8
  %4 = load i8*, i8** bitcast (%"class.std::basic_istream"* @_ZSt3cin to i8**), align 8, !tbaa !5
  %5 = getelementptr i8, i8* %4, i64 -24
  %6 = bitcast i8* %5 to i64*
  %7 = load i64, i64* %6, align 8
  %8 = add nsw i64 %7, 240
  %9 = getelementptr inbounds i8, i8* bitcast (%"class.std::basic_istream"* @_ZSt3cin to i8*), i64 %8
  %10 = bitcast i8* %9 to %"class.std::ctype"**
  %11 = load %"class.std::ctype"*, %"class.std::ctype"** %10, align 8, !tbaa !8
  %12 = icmp eq %"class.std::ctype"* %11, null
  br i1 %12, label %13, label %14

13:                                               ; preds = %0
  tail call void @_ZSt16__throw_bad_castv() #9
  unreachable

14:                                               ; preds = %0
  %15 = getelementptr inbounds %"class.std::ctype", %"class.std::ctype"* %11, i64 0, i32 8
  %16 = load i8, i8* %15, align 8, !tbaa !13
  %17 = icmp eq i8 %16, 0
  br i1 %17, label %21, label %18

18:                                               ; preds = %14
  %19 = getelementptr inbounds %"class.std::ctype", %"class.std::ctype"* %11, i64 0, i32 9, i64 10
  %20 = load i8, i8* %19, align 1, !tbaa !15
  br label %27

21:                                               ; preds = %14
  tail call void @_ZNKSt5ctypeIcE13_M_widen_initEv(%"class.std::ctype"* nonnull align 8 dereferenceable(570) %11)
  %22 = bitcast %"class.std::ctype"* %11 to i8 (%"class.std::ctype"*, i8)***
  %23 = load i8 (%"class.std::ctype"*, i8)**, i8 (%"class.std::ctype"*, i8)*** %22, align 8, !tbaa !5
  %24 = getelementptr inbounds i8 (%"class.std::ctype"*, i8)*, i8 (%"class.std::ctype"*, i8)** %23, i64 6
  %25 = load i8 (%"class.std::ctype"*, i8)*, i8 (%"class.std::ctype"*, i8)** %24, align 8
  %26 = tail call signext i8 %25(%"class.std::ctype"* nonnull align 8 dereferenceable(570) %11, i8 signext 10)
  br label %27

27:                                               ; preds = %18, %21
  %28 = phi i8 [ %20, %18 ], [ %26, %21 ]
  %29 = call nonnull align 8 dereferenceable(16) %"class.std::basic_istream"* @_ZNSi7getlineEPclc(%"class.std::basic_istream"* nonnull align 8 dereferenceable(16) @_ZSt3cin, i8* nonnull %3, i64 1000, i8 signext %28)
  %30 = call i64 @strlen(i8* noundef nonnull %3) #10
  %31 = trunc i64 %30 to i32
  %32 = icmp sgt i32 %31, 0
  br i1 %32, label %37, label %158

33:                                               ; preds = %153
  %34 = icmp sgt i32 %154, 0
  br i1 %34, label %35, label %158

35:                                               ; preds = %33
  %36 = zext i32 %154 to i64
  br label %159

37:                                               ; preds = %27, %153
  %38 = phi i32 [ %156, %153 ], [ 0, %27 ]
  %39 = phi i32 [ %154, %153 ], [ %31, %27 ]
  %40 = sext i32 %38 to i64
  %41 = getelementptr inbounds [1000 x i8], [1000 x i8]* %2, i64 0, i64 %40
  %42 = load i8, i8* %41, align 1, !tbaa !15
  %43 = icmp eq i8 %42, 32
  br i1 %43, label %44, label %153

44:                                               ; preds = %37
  %45 = add nsw i32 %38, 1
  %46 = sext i32 %45 to i64
  %47 = getelementptr inbounds [1000 x i8], [1000 x i8]* %2, i64 0, i64 %46
  %48 = load i8, i8* %47, align 1, !tbaa !15
  %49 = icmp eq i8 %48, 32
  br i1 %49, label %50, label %153

50:                                               ; preds = %44
  %51 = add nsw i32 %39, -1
  %52 = icmp slt i32 %38, %51
  br i1 %52, label %53, label %144

53:                                               ; preds = %50
  %54 = sext i32 %51 to i64
  %55 = sub nsw i64 %54, %40
  %56 = icmp ult i64 %55, 8
  br i1 %56, label %142, label %57

57:                                               ; preds = %53
  %58 = icmp ult i64 %55, 32
  br i1 %58, label %121, label %59

59:                                               ; preds = %57
  %60 = and i64 %55, -32
  %61 = add nsw i64 %60, -32
  %62 = lshr exact i64 %61, 5
  %63 = add nuw nsw i64 %62, 1
  %64 = and i64 %63, 1
  %65 = icmp eq i64 %61, 0
  br i1 %65, label %99, label %66

66:                                               ; preds = %59
  %67 = and i64 %63, 1152921504606846974
  br label %68

68:                                               ; preds = %68, %66
  %69 = phi i64 [ 0, %66 ], [ %96, %68 ]
  %70 = phi i64 [ %67, %66 ], [ %97, %68 ]
  %71 = add i64 %69, %40
  %72 = add nsw i64 %71, 1
  %73 = getelementptr inbounds [1000 x i8], [1000 x i8]* %2, i64 0, i64 %72
  %74 = bitcast i8* %73 to <16 x i8>*
  %75 = load <16 x i8>, <16 x i8>* %74, align 1, !tbaa !15
  %76 = getelementptr inbounds i8, i8* %73, i64 16
  %77 = bitcast i8* %76 to <16 x i8>*
  %78 = load <16 x i8>, <16 x i8>* %77, align 1, !tbaa !15
  %79 = getelementptr inbounds [1000 x i8], [1000 x i8]* %2, i64 0, i64 %71
  %80 = bitcast i8* %79 to <16 x i8>*
  store <16 x i8> %75, <16 x i8>* %80, align 1, !tbaa !15
  %81 = getelementptr inbounds i8, i8* %79, i64 16
  %82 = bitcast i8* %81 to <16 x i8>*
  store <16 x i8> %78, <16 x i8>* %82, align 1, !tbaa !15
  %83 = or i64 %69, 32
  %84 = add i64 %83, %40
  %85 = add nsw i64 %84, 1
  %86 = getelementptr inbounds [1000 x i8], [1000 x i8]* %2, i64 0, i64 %85
  %87 = bitcast i8* %86 to <16 x i8>*
  %88 = load <16 x i8>, <16 x i8>* %87, align 1, !tbaa !15
  %89 = getelementptr inbounds i8, i8* %86, i64 16
  %90 = bitcast i8* %89 to <16 x i8>*
  %91 = load <16 x i8>, <16 x i8>* %90, align 1, !tbaa !15
  %92 = getelementptr inbounds [1000 x i8], [1000 x i8]* %2, i64 0, i64 %84
  %93 = bitcast i8* %92 to <16 x i8>*
  store <16 x i8> %88, <16 x i8>* %93, align 1, !tbaa !15
  %94 = getelementptr inbounds i8, i8* %92, i64 16
  %95 = bitcast i8* %94 to <16 x i8>*
  store <16 x i8> %91, <16 x i8>* %95, align 1, !tbaa !15
  %96 = add nuw i64 %69, 64
  %97 = add i64 %70, -2
  %98 = icmp eq i64 %97, 0
  br i1 %98, label %99, label %68, !llvm.loop !16

99:                                               ; preds = %68, %59
  %100 = phi i64 [ 0, %59 ], [ %96, %68 ]
  %101 = icmp eq i64 %64, 0
  br i1 %101, label %115, label %102

102:                                              ; preds = %99
  %103 = add i64 %100, %40
  %104 = add nsw i64 %103, 1
  %105 = getelementptr inbounds [1000 x i8], [1000 x i8]* %2, i64 0, i64 %104
  %106 = bitcast i8* %105 to <16 x i8>*
  %107 = load <16 x i8>, <16 x i8>* %106, align 1, !tbaa !15
  %108 = getelementptr inbounds i8, i8* %105, i64 16
  %109 = bitcast i8* %108 to <16 x i8>*
  %110 = load <16 x i8>, <16 x i8>* %109, align 1, !tbaa !15
  %111 = getelementptr inbounds [1000 x i8], [1000 x i8]* %2, i64 0, i64 %103
  %112 = bitcast i8* %111 to <16 x i8>*
  store <16 x i8> %107, <16 x i8>* %112, align 1, !tbaa !15
  %113 = getelementptr inbounds i8, i8* %111, i64 16
  %114 = bitcast i8* %113 to <16 x i8>*
  store <16 x i8> %110, <16 x i8>* %114, align 1, !tbaa !15
  br label %115

115:                                              ; preds = %99, %102
  %116 = icmp eq i64 %55, %60
  br i1 %116, label %144, label %117

117:                                              ; preds = %115
  %118 = add nsw i64 %60, %40
  %119 = and i64 %55, 24
  %120 = icmp eq i64 %119, 0
  br i1 %120, label %142, label %121

121:                                              ; preds = %57, %117
  %122 = phi i64 [ %60, %117 ], [ 0, %57 ]
  %123 = add i32 %39, -1
  %124 = sext i32 %123 to i64
  %125 = sext i32 %38 to i64
  %126 = sub nsw i64 %124, %125
  %127 = and i64 %126, -8
  %128 = add nsw i64 %127, %40
  br label %129

129:                                              ; preds = %129, %121
  %130 = phi i64 [ %122, %121 ], [ %138, %129 ]
  %131 = add i64 %130, %40
  %132 = add nsw i64 %131, 1
  %133 = getelementptr inbounds [1000 x i8], [1000 x i8]* %2, i64 0, i64 %132
  %134 = bitcast i8* %133 to <8 x i8>*
  %135 = load <8 x i8>, <8 x i8>* %134, align 1, !tbaa !15
  %136 = getelementptr inbounds [1000 x i8], [1000 x i8]* %2, i64 0, i64 %131
  %137 = bitcast i8* %136 to <8 x i8>*
  store <8 x i8> %135, <8 x i8>* %137, align 1, !tbaa !15
  %138 = add nuw i64 %130, 8
  %139 = icmp eq i64 %138, %127
  br i1 %139, label %140, label %129, !llvm.loop !19

140:                                              ; preds = %129
  %141 = icmp eq i64 %126, %127
  br i1 %141, label %144, label %142

142:                                              ; preds = %53, %117, %140
  %143 = phi i64 [ %40, %53 ], [ %118, %117 ], [ %128, %140 ]
  br label %146

144:                                              ; preds = %146, %115, %140, %50
  %145 = add nsw i32 %38, -1
  br label %153

146:                                              ; preds = %142, %146
  %147 = phi i64 [ %148, %146 ], [ %143, %142 ]
  %148 = add nsw i64 %147, 1
  %149 = getelementptr inbounds [1000 x i8], [1000 x i8]* %2, i64 0, i64 %148
  %150 = load i8, i8* %149, align 1, !tbaa !15
  %151 = getelementptr inbounds [1000 x i8], [1000 x i8]* %2, i64 0, i64 %147
  store i8 %150, i8* %151, align 1, !tbaa !15
  %152 = icmp eq i64 %148, %54
  br i1 %152, label %144, label %146, !llvm.loop !20

153:                                              ; preds = %37, %44, %144
  %154 = phi i32 [ %51, %144 ], [ %39, %44 ], [ %39, %37 ]
  %155 = phi i32 [ %145, %144 ], [ %38, %44 ], [ %38, %37 ]
  %156 = add nsw i32 %155, 1
  %157 = icmp slt i32 %156, %154
  br i1 %157, label %37, label %33, !llvm.loop !22

158:                                              ; preds = %159, %27, %33
  call void @llvm.lifetime.end.p0i8(i64 1000, i8* nonnull %3) #8
  ret i32 0

159:                                              ; preds = %35, %159
  %160 = phi i64 [ 0, %35 ], [ %164, %159 ]
  %161 = getelementptr inbounds [1000 x i8], [1000 x i8]* %2, i64 0, i64 %160
  %162 = load i8, i8* %161, align 1, !tbaa !15
  call void @llvm.lifetime.start.p0i8(i64 1, i8* nonnull %1)
  store i8 %162, i8* %1, align 1, !tbaa !15
  %163 = call nonnull align 8 dereferenceable(8) %"class.std::basic_ostream"* @_ZSt16__ostream_insertIcSt11char_traitsIcEERSt13basic_ostreamIT_T0_ES6_PKS3_l(%"class.std::basic_ostream"* nonnull align 8 dereferenceable(8) @_ZSt4cout, i8* nonnull %1, i64 1)
  call void @llvm.lifetime.end.p0i8(i64 1, i8* nonnull %1)
  %164 = add nuw nsw i64 %160, 1
  %165 = icmp eq i64 %164, %36
  br i1 %165, label %158, label %159, !llvm.loop !23
}

; Function Attrs: argmemonly mustprogress nofree nosync nounwind willreturn
declare void @llvm.lifetime.start.p0i8(i64 immarg, i8* nocapture) #4

; Function Attrs: argmemonly mustprogress nofree nounwind readonly willreturn
declare i64 @strlen(i8* nocapture) local_unnamed_addr #5

; Function Attrs: argmemonly mustprogress nofree nosync nounwind willreturn
declare void @llvm.lifetime.end.p0i8(i64 immarg, i8* nocapture) #4

declare nonnull align 8 dereferenceable(16) %"class.std::basic_istream"* @_ZNSi7getlineEPclc(%"class.std::basic_istream"* nonnull align 8 dereferenceable(16), i8*, i64, i8 signext) local_unnamed_addr #0

; Function Attrs: noreturn
declare void @_ZSt16__throw_bad_castv() local_unnamed_addr #6

declare void @_ZNKSt5ctypeIcE13_M_widen_initEv(%"class.std::ctype"* nonnull align 8 dereferenceable(570)) local_unnamed_addr #0

declare nonnull align 8 dereferenceable(8) %"class.std::basic_ostream"* @_ZSt16__ostream_insertIcSt11char_traitsIcEERSt13basic_ostreamIT_T0_ES6_PKS3_l(%"class.std::basic_ostream"* nonnull align 8 dereferenceable(8), i8*, i64) local_unnamed_addr #0

; Function Attrs: sspstrong uwtable
define internal void @_GLOBAL__sub_I_2210.cpp() #7 section ".text.startup" {
  tail call void @_ZNSt8ios_base4InitC1Ev(%"class.std::ios_base::Init"* nonnull align 1 dereferenceable(1) @_ZStL8__ioinit)
  %1 = tail call i32 @__cxa_atexit(void (i8*)* bitcast (void (%"class.std::ios_base::Init"*)* @_ZNSt8ios_base4InitD1Ev to void (i8*)*), i8* getelementptr inbounds (%"class.std::ios_base::Init", %"class.std::ios_base::Init"* @_ZStL8__ioinit, i64 0, i32 0), i8* nonnull @__dso_handle) #8
  ret void
}


!llvm.module.flags = !{!0, !1, !2, !3}
!llvm.ident = !{!4}

!0 = !{i32 1, !"wchar_size", i32 4}
!1 = !{i32 7, !"PIC Level", i32 2}
!2 = !{i32 7, !"PIE Level", i32 2}
!3 = !{i32 7, !"uwtable", i32 1}
!4 = !{!"clang version 13.0.0"}
!5 = !{!6, !6, i64 0}
!6 = !{!"vtable pointer", !7, i64 0}
!7 = !{!"Simple C++ TBAA"}
!8 = !{!9, !10, i64 240}
!9 = !{!"_ZTSSt9basic_iosIcSt11char_traitsIcEE", !10, i64 216, !11, i64 224, !12, i64 225, !10, i64 232, !10, i64 240, !10, i64 248, !10, i64 256}
!10 = !{!"any pointer", !11, i64 0}
!11 = !{!"omnipotent char", !7, i64 0}
!12 = !{!"bool", !11, i64 0}
!13 = !{!14, !11, i64 56}
!14 = !{!"_ZTSSt5ctypeIcE", !10, i64 16, !12, i64 24, !10, i64 32, !10, i64 40, !10, i64 48, !11, i64 56, !11, i64 57, !11, i64 313, !11, i64 569}
!15 = !{!11, !11, i64 0}
!16 = distinct !{!16, !17, !18}
!17 = !{!"llvm.loop.mustprogress"}
!18 = !{!"llvm.loop.isvectorized", i32 1}
!19 = distinct !{!19, !17, !18}
!20 = distinct !{!20, !17, !21, !18}
!21 = !{!"llvm.loop.unroll.runtime.disable"}
!22 = distinct !{!22, !17}
!23 = distinct !{!23, !17}
